target datalayout = "e-m:e-p270:32:32-p271:32:32-p272:64:64-i64:64-i128:128-f80:128-n8:16:32:64-S128"
target triple = "x86_64-pc-linux-gnu"

; Function Attrs: nounwind uwtable
define internal void @hor_32x32_c(ptr noundef %0, i64 noundef %1, ptr noundef %2, ptr noundef %3) #1 {
  %5 = alloca ptr, align 8
  %6 = alloca i64, align 8
  %7 = alloca ptr, align 8
  %8 = alloca ptr, align 8
  %9 = alloca ptr, align 8
  %10 = alloca ptr, align 8
  %11 = alloca i32, align 4
  %12 = alloca i32, align 4
  store ptr %0, ptr %5, align 8, !tbaa !10
  store i64 %1, ptr %6, align 8, !tbaa !12
  store ptr %2, ptr %7, align 8, !tbaa !10
  store ptr %3, ptr %8, align 8, !tbaa !10
  call void @llvm.lifetime.start.p0(i64 8, ptr %9) #10
  %13 = load ptr, ptr %5, align 8, !tbaa !10
  store ptr %13, ptr %9, align 8, !tbaa !10
  call void @llvm.lifetime.start.p0(i64 8, ptr %10) #10
  %14 = load ptr, ptr %7, align 8, !tbaa !10
  store ptr %14, ptr %10, align 8, !tbaa !10
  call void @llvm.lifetime.start.p0(i64 4, ptr %11) #10
  %15 = load i64, ptr %6, align 8, !tbaa !12
  %16 = udiv i64 %15, 1
  store i64 %16, ptr %6, align 8, !tbaa !12
  store i32 0, ptr %11, align 4, !tbaa !15
  br label %17

17:                                               ; preds = %56, %4
  %18 = load i32, ptr %11, align 4, !tbaa !15
  %19 = icmp slt i32 %18, 32
  br i1 %19, label %20, label %59

20:                                               ; preds = %17
  call void @llvm.lifetime.start.p0(i64 4, ptr %12) #10
  %21 = load ptr, ptr %10, align 8, !tbaa !10
  %22 = load i32, ptr %11, align 4, !tbaa !15
  %23 = sub nsw i32 31, %22
  %24 = sext i32 %23 to i64
  %25 = getelementptr inbounds i8, ptr %21, i64 %24
  %26 = load i8, ptr %25, align 1, !tbaa !14
  %27 = zext i8 %26 to i32
  %28 = mul i32 %27, 16843009
  store i32 %28, ptr %12, align 4, !tbaa !15
  %29 = load i32, ptr %12, align 4, !tbaa !15
  %30 = load ptr, ptr %9, align 8, !tbaa !10
  %31 = getelementptr inbounds i8, ptr %30, i64 0
  store i32 %29, ptr %31, align 4, !tbaa !14
  %32 = load i32, ptr %12, align 4, !tbaa !15
  %33 = load ptr, ptr %9, align 8, !tbaa !10
  %34 = getelementptr inbounds i8, ptr %33, i64 4
  store i32 %32, ptr %34, align 4, !tbaa !14
  %35 = load i32, ptr %12, align 4, !tbaa !15
  %36 = load ptr, ptr %9, align 8, !tbaa !10
  %37 = getelementptr inbounds i8, ptr %36, i64 8
  store i32 %35, ptr %37, align 4, !tbaa !14
  %38 = load i32, ptr %12, align 4, !tbaa !15
  %39 = load ptr, ptr %9, align 8, !tbaa !10
  %40 = getelementptr inbounds i8, ptr %39, i64 12
  store i32 %38, ptr %40, align 4, !tbaa !14
  %41 = load i32, ptr %12, align 4, !tbaa !15
  %42 = load ptr, ptr %9, align 8, !tbaa !10
  %43 = getelementptr inbounds i8, ptr %42, i64 16
  store i32 %41, ptr %43, align 4, !tbaa !14
  %44 = load i32, ptr %12, align 4, !tbaa !15
  %45 = load ptr, ptr %9, align 8, !tbaa !10
  %46 = getelementptr inbounds i8, ptr %45, i64 20
  store i32 %44, ptr %46, align 4, !tbaa !14
  %47 = load i32, ptr %12, align 4, !tbaa !15
  %48 = load ptr, ptr %9, align 8, !tbaa !10
  %49 = getelementptr inbounds i8, ptr %48, i64 24
  store i32 %47, ptr %49, align 4, !tbaa !14
  %50 = load i32, ptr %12, align 4, !tbaa !15
  %51 = load ptr, ptr %9, align 8, !tbaa !10
  %52 = getelementptr inbounds i8, ptr %51, i64 28
  store i32 %50, ptr %52, align 4, !tbaa !14
  %53 = load i64, ptr %6, align 8, !tbaa !12
  %54 = load ptr, ptr %9, align 8, !tbaa !10
  %55 = getelementptr inbounds i8, ptr %54, i64 %53
  store ptr %55, ptr %9, align 8, !tbaa !10
  call void @llvm.lifetime.end.p0(i64 4, ptr %12) #10
  br label %56

56:                                               ; preds = %20
  %57 = load i32, ptr %11, align 4, !tbaa !15
  %58 = add nsw i32 %57, 1
  store i32 %58, ptr %11, align 4, !tbaa !15
  br label %17, !llvm.loop !66

59:                                               ; preds = %17
  call void @llvm.lifetime.end.p0(i64 4, ptr %11) #10
  call void @llvm.lifetime.end.p0(i64 8, ptr %10) #10
  call void @llvm.lifetime.end.p0(i64 8, ptr %9) #10
  ret void
}