; Function Attrs: nofree norecurse nosync nounwind memory(argmem: readwrite) uwtable
define internal void @hor_32x32_c(ptr noundef writeonly captures(none) %0, i64 noundef %1, ptr noundef readonly captures(none) %2, ptr readnone captures(none) %3) #2 {
  br label %5

5:                                                ; preds = %4, %5
  %indvars.iv = phi i64 [ 0, %4 ], [ %indvars.iv.next, %5 ]
  %.02425 = phi ptr [ %0, %4 ], [ %18, %5 ]
  %6 = sub nuw nsw i64 31, %indvars.iv
  %7 = getelementptr inbounds nuw i8, ptr %2, i64 %6
  %8 = load i8, ptr %7, align 1, !tbaa !8
  %9 = zext i8 %8 to i32
  %10 = mul nuw i32 %9, 16843009
  store i32 %10, ptr %.02425, align 4, !tbaa !8
  %11 = getelementptr inbounds nuw i8, ptr %.02425, i64 4
  store i32 %10, ptr %11, align 4, !tbaa !8
  %12 = getelementptr inbounds nuw i8, ptr %.02425, i64 8
  store i32 %10, ptr %12, align 4, !tbaa !8
  %13 = getelementptr inbounds nuw i8, ptr %.02425, i64 12
  store i32 %10, ptr %13, align 4, !tbaa !8
  %14 = getelementptr inbounds nuw i8, ptr %.02425, i64 16
  store i32 %10, ptr %14, align 4, !tbaa !8
  %15 = getelementptr inbounds nuw i8, ptr %.02425, i64 20
  store i32 %10, ptr %15, align 4, !tbaa !8
  %16 = getelementptr inbounds nuw i8, ptr %.02425, i64 24
  store i32 %10, ptr %16, align 4, !tbaa !8
  %17 = getelementptr inbounds nuw i8, ptr %.02425, i64 28
  store i32 %10, ptr %17, align 4, !tbaa !8
  %18 = getelementptr inbounds i8, ptr %.02425, i64 %1
  %indvars.iv.next = add nuw nsw i64 %indvars.iv, 1
  %exitcond.not = icmp eq i64 %indvars.iv.next, 32
  br i1 %exitcond.not, label %19, label %5, !llvm.loop !58

19:                                               ; preds = %5
  ret void
}